target datalayout = "e-m:e-p270:32:32-p271:32:32-p272:64:64-i64:64-i128:128-f80:128-n8:16:32:64-S128"
target triple = "x86_64-pc-linux-gnu"

%"class.icu_77::LocalPointerBase.12" = type { ptr }

; Function Attrs: inlinehint mustprogress nounwind uwtable
define internal noundef signext i8 @_ZL9U_SUCCESS10UErrorCode(i32 noundef %0) #2 {
  %2 = alloca i32, align 4
  store i32 %0, ptr %2, align 4, !tbaa !15
  %3 = load i32, ptr %2, align 4, !tbaa !15
  %4 = icmp sle i32 %3, 0
  %5 = zext i1 %4 to i8
  ret i8 %5
}

; Function Attrs: mustprogress nounwind uwtable
define internal void @_ZN6icu_7712LocalPointerIN12_GLOBAL__N_118ExtensionListEntryEE29adoptInsteadAndCheckErrorCodeEPS2_R10UErrorCode(ptr noundef nonnull align 8 dereferenceable(8) %0, ptr noundef %1, ptr noundef nonnull align 4 dereferenceable(4) %2) #0 align 2 {
  %4 = alloca ptr, align 8
  %5 = alloca ptr, align 8
  %6 = alloca ptr, align 8
  store ptr %0, ptr %4, align 8, !tbaa !192
  store ptr %1, ptr %5, align 8, !tbaa !74
  store ptr %2, ptr %6, align 8, !tbaa !22
  %7 = load ptr, ptr %4, align 8
  %8 = load ptr, ptr %6, align 8, !tbaa !22
  %9 = load i32, ptr %8, align 4, !tbaa !15
  %10 = call noundef signext i8 @_ZL9U_SUCCESS10UErrorCode(i32 noundef %9)
  %11 = icmp ne i8 %10, 0
  br i1 %11, label %12, label %25

12:                                               ; preds = %3
  %13 = getelementptr inbounds nuw %"class.icu_77::LocalPointerBase.12", ptr %7, i32 0, i32 0
  %14 = load ptr, ptr %13, align 8, !tbaa !198
  %15 = icmp eq ptr %14, null
  br i1 %15, label %17, label %16

16:                                               ; preds = %12
  call void @_ZN6icu_777UMemorydlEPv(ptr noundef %14) #12
  br label %17

17:                                               ; preds = %16, %12
  %18 = load ptr, ptr %5, align 8, !tbaa !74
  %19 = getelementptr inbounds nuw %"class.icu_77::LocalPointerBase.12", ptr %7, i32 0, i32 0
  store ptr %18, ptr %19, align 8, !tbaa !198
  %20 = load ptr, ptr %5, align 8, !tbaa !74
  %21 = icmp eq ptr %20, null
  br i1 %21, label %22, label %24

22:                                               ; preds = %17
  %23 = load ptr, ptr %6, align 8, !tbaa !22
  store i32 7, ptr %23, align 4, !tbaa !15
  br label %24

24:                                               ; preds = %22, %17
  br label %30

25:                                               ; preds = %3
  %26 = load ptr, ptr %5, align 8, !tbaa !74
  %27 = icmp eq ptr %26, null
  br i1 %27, label %29, label %28

28:                                               ; preds = %25
  call void @_ZN6icu_777UMemorydlEPv(ptr noundef %26) #12
  br label %29

29:                                               ; preds = %28, %25
  br label %30

30:                                               ; preds = %29, %24
  ret void
}