; Function Attrs: mustprogress nounwind uwtable
define internal fastcc void @_ZN6icu_7712LocalPointerIN12_GLOBAL__N_118ExtensionListEntryEE29adoptInsteadAndCheckErrorCodeEPS2_R10UErrorCode(ptr noundef nonnull align 8 captures(none) dereferenceable(8) %0, ptr noundef %1, ptr noundef nonnull align 4 captures(none) dereferenceable(4) %2) unnamed_addr #0 align 2 {
  %4 = load i32, ptr %2, align 4, !tbaa !13
  %5 = icmp sgt i32 %4, 0
  br i1 %5, label %13, label %6

6:                                                ; preds = %3
  %7 = load ptr, ptr %0, align 8, !tbaa !108
  %8 = icmp eq ptr %7, null
  br i1 %8, label %10, label %9

9:                                                ; preds = %6
  tail call void @_ZN6icu_777UMemorydlEPv(ptr noundef nonnull %7) #17
  br label %10

10:                                               ; preds = %9, %6
  store ptr %1, ptr %0, align 8, !tbaa !108
  %11 = icmp eq ptr %1, null
  br i1 %11, label %12, label %16

12:                                               ; preds = %10
  store i32 7, ptr %2, align 4, !tbaa !13
  br label %16

13:                                               ; preds = %3
  %14 = icmp eq ptr %1, null
  br i1 %14, label %16, label %15

15:                                               ; preds = %13
  tail call void @_ZN6icu_777UMemorydlEPv(ptr noundef nonnull %1) #17
  br label %16

16:                                               ; preds = %13, %15, %10, %12
  ret void
}